target datalayout = "e-m:e-p270:32:32-p271:32:32-p272:64:64-i64:64-i128:128-f80:128-n8:16:32:64-S128"
target triple = "x86_64-pc-linux-gnu"

; Function Attrs: nounwind uwtable
define internal void @TransformTwo_C(ptr noalias noundef %0, ptr noalias noundef %1, i32 noundef %2) #0 {
  %4 = alloca ptr, align 8
  %5 = alloca ptr, align 8
  %6 = alloca i32, align 4
  store ptr %0, ptr %4, align 8, !tbaa !7
  store ptr %1, ptr %5, align 8, !tbaa !16
  store i32 %2, ptr %6, align 4, !tbaa !9
  %7 = load ptr, ptr %4, align 8, !tbaa !7
  %8 = load ptr, ptr %5, align 8, !tbaa !16
  call void @TransformOne_C(ptr noundef %7, ptr noundef %8)
  %9 = load i32, ptr %6, align 4, !tbaa !9
  %10 = icmp ne i32 %9, 0
  br i1 %10, label %11, label %16

11:                                               ; preds = %3
  %12 = load ptr, ptr %4, align 8, !tbaa !7
  %13 = getelementptr inbounds i16, ptr %12, i64 16
  %14 = load ptr, ptr %5, align 8, !tbaa !16
  %15 = getelementptr inbounds i8, ptr %14, i64 4
  call void @TransformOne_C(ptr noundef %13, ptr noundef %15)
  br label %16

16:                                               ; preds = %11, %3
  ret void
}