; Function Attrs: nofree norecurse nosync nounwind memory(argmem: readwrite) uwtable
define internal void @TransformTwo_C(ptr noalias noundef readonly captures(none) %0, ptr noalias noundef captures(none) %1, i32 noundef %2) #3 {
  tail call fastcc void @TransformOne_C(ptr noundef %0, ptr noundef %1)
  %.not = icmp eq i32 %2, 0
  br i1 %.not, label %7, label %4

4:                                                ; preds = %3
  %5 = getelementptr inbounds nuw i8, ptr %0, i64 32
  %6 = getelementptr inbounds nuw i8, ptr %1, i64 4
  tail call fastcc void @TransformOne_C(ptr noundef nonnull %5, ptr noundef nonnull %6)
  br label %7

7:                                                ; preds = %4, %3
  ret void
}